target datalayout = "e-m:e-p270:32:32-p271:32:32-p272:64:64-i64:64-i128:128-f80:128-n8:16:32:64-S128"
target triple = "x86_64-pc-linux-gnu"

%"struct.vcpkg::StringView" = type { ptr, i64 }
%"struct.vcpkg::Json::Value" = type { %"class.std::unique_ptr" }
%"class.std::unique_ptr" = type { %"struct.std::__uniq_ptr_data" }
%"struct.std::__uniq_ptr_data" = type { %"class.std::__uniq_ptr_impl" }
%"class.std::__uniq_ptr_impl" = type { %"class.std::tuple" }
%"class.std::tuple" = type { %"struct.std::_Tuple_impl" }
%"struct.std::_Tuple_impl" = type { %"struct.std::_Head_base.1" }
%"struct.std::_Head_base.1" = type { ptr }
%"class.std::__cxx11::basic_string" = type { %"struct.std::__cxx11::basic_string<char>::_Alloc_hider", i64, %union.anon.2 }
%"struct.std::__cxx11::basic_string<char>::_Alloc_hider" = type { ptr }
%union.anon.2 = type { i64, [8 x i8] }
%"struct.vcpkg::Json::Object" = type { %"class.std::vector.6" }
%"class.std::vector.6" = type { %"struct.std::_Vector_base.7" }
%"struct.std::_Vector_base.7" = type { %"struct.std::_Vector_base<std::pair<std::__cxx11::basic_string<char>, vcpkg::Json::Value>, std::allocator<std::pair<std::__cxx11::basic_string<char>, vcpkg::Json::Value>>>::_Vector_impl" }
%"struct.std::_Vector_base<std::pair<std::__cxx11::basic_string<char>, vcpkg::Json::Value>, std::allocator<std::pair<std::__cxx11::basic_string<char>, vcpkg::Json::Value>>>::_Vector_impl" = type { %"struct.std::_Vector_base<std::pair<std::__cxx11::basic_string<char>, vcpkg::Json::Value>, std::allocator<std::pair<std::__cxx11::basic_string<char>, vcpkg::Json::Value>>>::_Vector_impl_data" }
%"struct.std::_Vector_base<std::pair<std::__cxx11::basic_string<char>, vcpkg::Json::Value>, std::allocator<std::pair<std::__cxx11::basic_string<char>, vcpkg::Json::Value>>>::_Vector_impl_data" = type { ptr, ptr, ptr }
%"struct.std::pair" = type { %"class.std::__cxx11::basic_string", %"struct.vcpkg::Json::Value" }
%"class.__gnu_cxx::__normal_iterator.17" = type { ptr }

; Function Attrs: mustprogress nounwind uwtable
define linkonce_odr dso_local noundef nonnull align 8 dereferenceable(8) ptr @_ZNK9__gnu_cxx17__normal_iteratorIPKSt4pairINSt7__cxx1112basic_stringIcSt11char_traitsIcESaIcEEEN5vcpkg4Json5ValueEESt6vectorISB_SaISB_EEE4baseEv(ptr noundef nonnull align 8 dereferenceable(8) %0) #0 comdat align 2 {
  %2 = alloca ptr, align 8
  store ptr %0, ptr %2, align 8
  %3 = load ptr, ptr %2, align 8
  %4 = getelementptr inbounds %"class.__gnu_cxx::__normal_iterator.17", ptr %3, i32 0, i32 0
  ret ptr %4
}

; Function Attrs: mustprogress nounwind uwtable
define linkonce_odr dso_local void @_ZN9__gnu_cxx17__normal_iteratorIPKSt4pairINSt7__cxx1112basic_stringIcSt11char_traitsIcESaIcEEEN5vcpkg4Json5ValueEESt6vectorISB_SaISB_EEEC2ERKSD_(ptr noundef nonnull align 8 dereferenceable(8) %0, ptr noundef nonnull align 8 dereferenceable(8) %1) unnamed_addr #0 comdat align 2 {
  %3 = alloca ptr, align 8
  %4 = alloca ptr, align 8
  store ptr %0, ptr %3, align 8
  store ptr %1, ptr %4, align 8
  %5 = load ptr, ptr %3, align 8
  %6 = getelementptr inbounds %"class.__gnu_cxx::__normal_iterator.17", ptr %5, i32 0, i32 0
  %7 = load ptr, ptr %4, align 8
  %8 = load ptr, ptr %7, align 8
  store ptr %8, ptr %6, align 8
  ret void
}

; Function Attrs: mustprogress nounwind uwtable
define linkonce_odr dso_local noundef ptr @_ZNK9__gnu_cxx17__normal_iteratorIPKSt4pairINSt7__cxx1112basic_stringIcSt11char_traitsIcESaIcEEEN5vcpkg4Json5ValueEESt6vectorISB_SaISB_EEEptEv(ptr noundef nonnull align 8 dereferenceable(8) %0) #0 comdat align 2 {
  %2 = alloca ptr, align 8
  store ptr %0, ptr %2, align 8
  %3 = load ptr, ptr %2, align 8
  %4 = getelementptr inbounds %"class.__gnu_cxx::__normal_iterator.17", ptr %3, i32 0, i32 0
  %5 = load ptr, ptr %4, align 8
  ret ptr %5
}

; Function Attrs: mustprogress nounwind uwtable
define linkonce_odr dso_local noundef zeroext i1 @_ZN9__gnu_cxxeqIPKSt4pairINSt7__cxx1112basic_stringIcSt11char_traitsIcESaIcEEEN5vcpkg4Json5ValueEESt6vectorISB_SaISB_EEEEbRKNS_17__normal_iteratorIT_T0_EESM_(ptr noundef nonnull align 8 dereferenceable(8) %0, ptr noundef nonnull align 8 dereferenceable(8) %1) #0 comdat {
  %3 = alloca ptr, align 8
  %4 = alloca ptr, align 8
  store ptr %0, ptr %3, align 8
  store ptr %1, ptr %4, align 8
  %5 = load ptr, ptr %3, align 8
  %6 = call noundef nonnull align 8 dereferenceable(8) ptr @_ZNK9__gnu_cxx17__normal_iteratorIPKSt4pairINSt7__cxx1112basic_stringIcSt11char_traitsIcESaIcEEEN5vcpkg4Json5ValueEESt6vectorISB_SaISB_EEE4baseEv(ptr noundef nonnull align 8 dereferenceable(8) %5) #9
  %7 = load ptr, ptr %6, align 8
  %8 = load ptr, ptr %4, align 8
  %9 = call noundef nonnull align 8 dereferenceable(8) ptr @_ZNK9__gnu_cxx17__normal_iteratorIPKSt4pairINSt7__cxx1112basic_stringIcSt11char_traitsIcESaIcEEEN5vcpkg4Json5ValueEESt6vectorISB_SaISB_EEE4baseEv(ptr noundef nonnull align 8 dereferenceable(8) %8) #9
  %10 = load ptr, ptr %9, align 8
  %11 = icmp eq ptr %7, %10
  ret i1 %11
}

; Function Attrs: mustprogress nounwind uwtable
define linkonce_odr dso_local ptr @_ZNKSt6vectorISt4pairINSt7__cxx1112basic_stringIcSt11char_traitsIcESaIcEEEN5vcpkg4Json5ValueEESaISA_EE3endEv(ptr noundef nonnull align 8 dereferenceable(24) %0) #0 comdat align 2 {
  %2 = alloca %"class.__gnu_cxx::__normal_iterator.17", align 8
  %3 = alloca ptr, align 8
  store ptr %0, ptr %3, align 8
  %4 = load ptr, ptr %3, align 8
  %5 = getelementptr inbounds %"struct.std::_Vector_base.7", ptr %4, i32 0, i32 0
  %6 = getelementptr inbounds %"struct.std::_Vector_base<std::pair<std::__cxx11::basic_string<char>, vcpkg::Json::Value>, std::allocator<std::pair<std::__cxx11::basic_string<char>, vcpkg::Json::Value>>>::_Vector_impl_data", ptr %5, i32 0, i32 1
  call void @_ZN9__gnu_cxx17__normal_iteratorIPKSt4pairINSt7__cxx1112basic_stringIcSt11char_traitsIcESaIcEEEN5vcpkg4Json5ValueEESt6vectorISB_SaISB_EEEC2ERKSD_(ptr noundef nonnull align 8 dereferenceable(8) %2, ptr noundef nonnull align 8 dereferenceable(8) %6) #9
  %7 = getelementptr inbounds %"class.__gnu_cxx::__normal_iterator.17", ptr %2, i32 0, i32 0
  %8 = load ptr, ptr %7, align 8
  ret ptr %8
}

; Function Attrs: mustprogress nounwind uwtable
define dso_local noundef ptr @_ZNK5vcpkg4Json6Object3getENS_10StringViewE(ptr noundef nonnull align 8 dereferenceable(24) %0, ptr %1, i64 %2) #0 align 2 {
  %4 = alloca ptr, align 8
  %5 = alloca %"struct.vcpkg::StringView", align 8
  %6 = alloca ptr, align 8
  %7 = alloca %"class.__gnu_cxx::__normal_iterator.17", align 8
  %8 = alloca %"struct.vcpkg::StringView", align 8
  %9 = alloca %"class.__gnu_cxx::__normal_iterator.17", align 8
  %10 = getelementptr inbounds { ptr, i64 }, ptr %5, i32 0, i32 0
  store ptr %1, ptr %10, align 8
  %11 = getelementptr inbounds { ptr, i64 }, ptr %5, i32 0, i32 1
  store i64 %2, ptr %11, align 8
  store ptr %0, ptr %6, align 8
  %12 = load ptr, ptr %6, align 8
  call void @llvm.memcpy.p0.p0.i64(ptr align 8 %8, ptr align 8 %5, i64 16, i1 false)
  %13 = getelementptr inbounds { ptr, i64 }, ptr %8, i32 0, i32 0
  %14 = load ptr, ptr %13, align 8
  %15 = getelementptr inbounds { ptr, i64 }, ptr %8, i32 0, i32 1
  %16 = load i64, ptr %15, align 8
  %17 = call ptr @_ZNK5vcpkg4Json6Object17internal_find_keyB5cxx11ENS_10StringViewE(ptr noundef nonnull align 8 dereferenceable(24) %12, ptr %14, i64 %16) #9
  %18 = getelementptr inbounds %"class.__gnu_cxx::__normal_iterator.17", ptr %7, i32 0, i32 0
  store ptr %17, ptr %18, align 8
  %19 = getelementptr inbounds %"struct.vcpkg::Json::Object", ptr %12, i32 0, i32 0
  %20 = call ptr @_ZNKSt6vectorISt4pairINSt7__cxx1112basic_stringIcSt11char_traitsIcESaIcEEEN5vcpkg4Json5ValueEESaISA_EE3endEv(ptr noundef nonnull align 8 dereferenceable(24) %19) #9
  %21 = getelementptr inbounds %"class.__gnu_cxx::__normal_iterator.17", ptr %9, i32 0, i32 0
  store ptr %20, ptr %21, align 8
  %22 = call noundef zeroext i1 @_ZN9__gnu_cxxeqIPKSt4pairINSt7__cxx1112basic_stringIcSt11char_traitsIcESaIcEEEN5vcpkg4Json5ValueEESt6vectorISB_SaISB_EEEEbRKNS_17__normal_iteratorIT_T0_EESM_(ptr noundef nonnull align 8 dereferenceable(8) %7, ptr noundef nonnull align 8 dereferenceable(8) %9) #9
  br i1 %22, label %23, label %24

23:                                               ; preds = %3
  store ptr null, ptr %4, align 8
  br label %27

24:                                               ; preds = %3
  %25 = call noundef ptr @_ZNK9__gnu_cxx17__normal_iteratorIPKSt4pairINSt7__cxx1112basic_stringIcSt11char_traitsIcESaIcEEEN5vcpkg4Json5ValueEESt6vectorISB_SaISB_EEEptEv(ptr noundef nonnull align 8 dereferenceable(8) %7) #9
  %26 = getelementptr inbounds %"struct.std::pair", ptr %25, i32 0, i32 1
  store ptr %26, ptr %4, align 8
  br label %27

27:                                               ; preds = %24, %23
  %28 = load ptr, ptr %4, align 8
  ret ptr %28
}